; Function Attrs: nounwind uwtable
define ptr @l___private_Init_GetElem_0__List_get_x21Internal___rarg(ptr noundef %0, ptr noundef %1, ptr noundef %2) local_unnamed_addr #0 {
  br label %lean_dec.exit26

lean_dec.exit26:                                  ; preds = %lean_dec.exit26.backedge, %3
  %.023 = phi ptr [ %2, %3 ], [ %.023.be, %lean_dec.exit26.backedge ]
  %.021 = phi ptr [ %1, %3 ], [ %29, %lean_dec.exit26.backedge ]
  %4 = ptrtoint ptr %.021 to i64
  %5 = and i64 %4, 1
  %.not.i35 = icmp eq i64 %5, 0
  br i1 %.not.i35, label %9, label %6

6:                                                ; preds = %lean_dec.exit26
  %7 = lshr i64 %4, 1
  %8 = trunc i64 %7 to i32
  br label %lean_obj_tag.exit

9:                                                ; preds = %lean_dec.exit26
  %10 = getelementptr i8, ptr %.021, i64 4
  %.val.i = load i32, ptr %10, align 4
  %11 = lshr i32 %.val.i, 24
  br label %lean_obj_tag.exit

lean_obj_tag.exit:                                ; preds = %6, %9
  %.0.i36 = phi i32 [ %8, %6 ], [ %11, %9 ]
  %12 = icmp eq i32 %.0.i36, 0
  br i1 %12, label %13, label %25

13:                                               ; preds = %lean_obj_tag.exit
  %14 = ptrtoint ptr %.023 to i64
  %15 = and i64 %14, 1
  %.not52 = icmp eq i64 %15, 0
  br i1 %.not52, label %16, label %lean_dec.exit27

16:                                               ; preds = %13
  %17 = load i32, ptr %.023, align 4, !tbaa !8
  %18 = icmp sgt i32 %17, 1
  br i1 %18, label %19, label %21, !prof !13

19:                                               ; preds = %16
  %20 = add nsw i32 %17, -1
  store i32 %20, ptr %.023, align 4, !tbaa !8
  br label %lean_dec.exit27

21:                                               ; preds = %16
  %.not.i = icmp eq i32 %17, 0
  br i1 %.not.i, label %lean_dec.exit27, label %22

22:                                               ; preds = %21
  tail call void @lean_dec_ref_cold(ptr noundef nonnull %.023) #5
  br label %lean_dec.exit27

lean_dec.exit27:                                  ; preds = %22, %21, %19, %13
  %23 = load ptr, ptr @l___private_Init_GetElem_0__List_get_x21Internal___rarg___closed__3, align 8, !tbaa !4
  %24 = tail call ptr @l_panic___rarg(ptr noundef %0, ptr noundef %23) #5
  br label %lean_dec.exit26.thread

25:                                               ; preds = %lean_obj_tag.exit
  %26 = getelementptr inbounds nuw i8, ptr %.021, i64 8
  %27 = load ptr, ptr %26, align 8, !tbaa !4
  %28 = getelementptr inbounds nuw i8, ptr %.021, i64 16
  %29 = load ptr, ptr %28, align 8, !tbaa !4
  %30 = ptrtoint ptr %.023 to i64
  %31 = and i64 %30, 1
  %.not = icmp eq i64 %31, 0
  br i1 %.not, label %lean_nat_eq.exit.thread, label %lean_nat_eq.exit, !prof !14

lean_nat_eq.exit:                                 ; preds = %25
  %.not49 = icmp eq ptr %.023, inttoptr (i64 1 to ptr)
  br i1 %.not49, label %lean_dec.exit25, label %33

lean_nat_eq.exit.thread:                          ; preds = %25
  %32 = tail call zeroext i1 @lean_nat_big_eq(ptr noundef %.023, ptr noundef nonnull inttoptr (i64 1 to ptr)) #5
  br i1 %32, label %.thread42, label %.thread

33:                                               ; preds = %lean_nat_eq.exit
  %34 = icmp ult ptr %.023, inttoptr (i64 2 to ptr)
  br i1 %34, label %lean_dec.exit26.backedge, label %35

35:                                               ; preds = %33
  %36 = add i64 %30, -2
  %37 = inttoptr i64 %36 to ptr
  br label %lean_dec.exit26.backedge

lean_dec.exit26.backedge:                         ; preds = %35, %33, %41, %43, %44
  %.023.be = phi ptr [ %38, %41 ], [ %38, %43 ], [ %38, %44 ], [ inttoptr (i64 1 to ptr), %33 ], [ %37, %35 ]
  br label %lean_dec.exit26

.thread:                                          ; preds = %lean_nat_eq.exit.thread
  %38 = tail call ptr @lean_nat_big_sub(ptr noundef %.023, ptr noundef nonnull inttoptr (i64 3 to ptr)) #5
  %39 = load i32, ptr %.023, align 4, !tbaa !8
  %40 = icmp sgt i32 %39, 1
  br i1 %40, label %41, label %43, !prof !13

41:                                               ; preds = %.thread
  %42 = add nsw i32 %39, -1
  store i32 %42, ptr %.023, align 4, !tbaa !8
  br label %lean_dec.exit26.backedge

43:                                               ; preds = %.thread
  %.not.i28 = icmp eq i32 %39, 0
  br i1 %.not.i28, label %lean_dec.exit26.backedge, label %44

44:                                               ; preds = %43
  tail call void @lean_dec_ref_cold(ptr noundef nonnull %.023) #5
  br label %lean_dec.exit26.backedge

.thread42:                                        ; preds = %lean_nat_eq.exit.thread
  %45 = load i32, ptr %.023, align 4, !tbaa !8
  %46 = icmp sgt i32 %45, 1
  br i1 %46, label %47, label %49, !prof !13

47:                                               ; preds = %.thread42
  %48 = add nsw i32 %45, -1
  store i32 %48, ptr %.023, align 4, !tbaa !8
  br label %lean_dec.exit25

49:                                               ; preds = %.thread42
  %.not.i30 = icmp eq i32 %45, 0
  br i1 %.not.i30, label %lean_dec.exit25, label %50

50:                                               ; preds = %49
  tail call void @lean_dec_ref_cold(ptr noundef nonnull %.023) #5
  br label %lean_dec.exit25

lean_dec.exit25:                                  ; preds = %lean_nat_eq.exit, %50, %49, %47
  %51 = ptrtoint ptr %0 to i64
  %52 = and i64 %51, 1
  %.not50 = icmp eq i64 %52, 0
  br i1 %.not50, label %53, label %lean_dec.exit

53:                                               ; preds = %lean_dec.exit25
  %54 = load i32, ptr %0, align 4, !tbaa !8
  %55 = icmp sgt i32 %54, 1
  br i1 %55, label %56, label %58, !prof !13

56:                                               ; preds = %53
  %57 = add nsw i32 %54, -1
  store i32 %57, ptr %0, align 4, !tbaa !8
  br label %lean_dec.exit

58:                                               ; preds = %53
  %.not.i32 = icmp eq i32 %54, 0
  br i1 %.not.i32, label %lean_dec.exit, label %59

59:                                               ; preds = %58
  tail call void @lean_dec_ref_cold(ptr noundef nonnull %0) #5
  br label %lean_dec.exit

lean_dec.exit:                                    ; preds = %59, %58, %56, %lean_dec.exit25
  %60 = ptrtoint ptr %27 to i64
  %61 = and i64 %60, 1
  %.not51 = icmp eq i64 %61, 0
  br i1 %.not51, label %62, label %lean_dec.exit26.thread

62:                                               ; preds = %lean_dec.exit
  %.val.i37 = load i32, ptr %27, align 4, !tbaa !8
  %63 = icmp sgt i32 %.val.i37, 0
  br i1 %63, label %64, label %66, !prof !13

64:                                               ; preds = %62
  %65 = add nuw i32 %.val.i37, 1
  store i32 %65, ptr %27, align 4, !tbaa !8
  br label %lean_dec.exit26.thread

66:                                               ; preds = %62
  %.not.i38 = icmp eq i32 %.val.i37, 0
  br i1 %.not.i38, label %lean_dec.exit26.thread, label %67

67:                                               ; preds = %66
  tail call void @lean_inc_ref_cold(ptr noundef nonnull %27) #5
  br label %lean_dec.exit26.thread

lean_dec.exit26.thread:                           ; preds = %lean_dec.exit, %64, %66, %67, %lean_dec.exit27
  %.1 = phi ptr [ %24, %lean_dec.exit27 ], [ %27, %67 ], [ %27, %66 ], [ %27, %64 ], [ %27, %lean_dec.exit ]
  ret ptr %.1
}